ccopy_reg
_reconstructor
p0
(csklearn.linear_model.base
LinearRegression
p1
c__builtin__
object
p2
Ntp3
Rp4
(dp5
S'normalize'
p6
I00
sS'n_jobs'
p7
I1
sS'rank_'
p8
I4
sS'fit_intercept'
p9
I01
sS'_residues'
p10
cnumpy.core.multiarray
_reconstruct
p11
(cnumpy
ndarray
p12
(I0
tp13
S'b'
p14
tp15
Rp16
(I1
(I1
tp17
cnumpy
dtype
p18
(S'f8'
p19
I0
I1
tp20
Rp21
(I3
S'<'
p22
NNNI-1
I-1
I0
tp23
bI00
S'V\xf8\xe0VpyV@'
p24
tp25
bsS'coef_'
p26
g11
(g12
(I0
tp27
g14
tp28
Rp29
(I1
(I1
I4
tp30
g21
I00
S'\xe0\xc1\x0bT\xd6P\xc4?e\x98\xfb\xb6\xbd\xd0\xf4?\xcf\xbe\xca\xf8\xc1c\x00@\xf0\xf9\x89\xa5\xf2S\xf1?'
p31
tp32
bsS'_sklearn_version'
p33
S'0.19.1'
p34
sS'copy_X'
p35
I01
sS'intercept_'
p36
g11
(g12
(I0
tp37
g14
tp38
Rp39
(I1
(I1
tp40
g21
I00
S'\x8e.\xccmT\x13\x1d\xc0'
p41
tp42
bsS'singular_'
p43
g11
(g12
(I0
tp44
g14
tp45
Rp46
(I1
(I4
tp47
g21
I00
S"@\xf0\xb4l)\x8f'@\xc2+\x88@<\xe9!@+\x17M\xd4!y\x1e@\xbc\xa3\xf0\xcfY=\x07@"
p48
tp49
bsb.