ccopy_reg
_reconstructor
p0
(csklearn.linear_model.base
LinearRegression
p1
c__builtin__
object
p2
Ntp3
Rp4
(dp5
S'normalize'
p6
I00
sS'n_jobs'
p7
I1
sS'rank_'
p8
I4
sS'fit_intercept'
p9
I01
sS'_residues'
p10
cnumpy.core.multiarray
_reconstruct
p11
(cnumpy
ndarray
p12
(I0
tp13
S'b'
p14
tp15
Rp16
(I1
(I1
tp17
cnumpy
dtype
p18
(S'f8'
p19
I0
I1
tp20
Rp21
(I3
S'<'
p22
NNNI-1
I-1
I0
tp23
bI00
S'\x98\xb1T\xef\x9c\xe3`@'
p24
tp25
bsS'coef_'
p26
g11
(g12
(I0
tp27
g14
tp28
Rp29
(I1
(I1
I4
tp30
g21
I00
S'\xe9\x9e\x8bp-%\x8a\xbfK_\r\x9e\xde\xb9\xf8?6eI\xd5o8\xe6?\x8c\xeaV\x8e\xd0\xd2\xf5?'
p31
tp32
bsS'_sklearn_version'
p33
S'0.19.1'
p34
sS'copy_X'
p35
I01
sS'intercept_'
p36
g11
(g12
(I0
tp37
g14
tp38
Rp39
(I1
(I1
tp40
g21
I00
S'\x00\x1c\x93\xc1\xbb\xa9\xe4\xbf'
p41
tp42
bsS'singular_'
p43
g11
(g12
(I0
tp44
g14
tp45
Rp46
(I1
(I4
tp47
g21
I00
S'\x89\xe54\xdc;\xe4j@\xfe?\xeeDcl3@~`?x$\x83,@w\x00\x159\x01^\x1d@'
p48
tp49
bsb.